target datalayout = "e-m:e-p270:32:32-p271:32:32-p272:64:64-i64:64-i128:128-f80:128-n8:16:32:64-S128"
target triple = "x86_64-pc-linux-gnu"

%struct.Vector3 = type { float, float, float }

; Function Attrs: nounwind uwtable
define { <2 x float>, float } @Vector3Negate(<2 x float> %0, float %1) #9 {
  %3 = alloca %struct.Vector3, align 4
  %4 = alloca %struct.Vector3, align 4
  %5 = alloca { <2 x float>, float }, align 4
  %6 = alloca { <2 x float>, float }, align 8
  %7 = getelementptr inbounds nuw { <2 x float>, float }, ptr %5, i32 0, i32 0
  store <2 x float> %0, ptr %7, align 4
  %8 = getelementptr inbounds nuw { <2 x float>, float }, ptr %5, i32 0, i32 1
  store float %1, ptr %8, align 4
  call void @llvm.memcpy.p0.p0.i64(ptr align 4 %4, ptr align 4 %5, i64 12, i1 false)
  %9 = getelementptr inbounds nuw %struct.Vector3, ptr %3, i32 0, i32 0
  %10 = getelementptr inbounds nuw %struct.Vector3, ptr %4, i32 0, i32 0
  %11 = load float, ptr %10, align 4
  %12 = fneg float %11
  store float %12, ptr %9, align 4
  %13 = getelementptr inbounds nuw %struct.Vector3, ptr %3, i32 0, i32 1
  %14 = getelementptr inbounds nuw %struct.Vector3, ptr %4, i32 0, i32 1
  %15 = load float, ptr %14, align 4
  %16 = fneg float %15
  store float %16, ptr %13, align 4
  %17 = getelementptr inbounds nuw %struct.Vector3, ptr %3, i32 0, i32 2
  %18 = getelementptr inbounds nuw %struct.Vector3, ptr %4, i32 0, i32 2
  %19 = load float, ptr %18, align 4
  %20 = fneg float %19
  store float %20, ptr %17, align 4
  call void @llvm.memcpy.p0.p0.i64(ptr align 8 %6, ptr align 4 %3, i64 12, i1 false)
  %21 = load { <2 x float>, float }, ptr %6, align 8
  ret { <2 x float>, float } %21
}