; Function Attrs: mustprogress nofree norecurse nosync nounwind willreturn memory(none) uwtable
define { <2 x float>, float } @Vector3Negate(<2 x float> %0, float %1) local_unnamed_addr #17 {
  %.sroa.03.0.vec.extract = extractelement <2 x float> %0, i64 0
  %3 = fneg float %.sroa.03.0.vec.extract
  %4 = fneg <2 x float> %0
  %.sroa.04.4.vec.insert = insertelement <2 x float> %4, float %3, i64 0
  %5 = fneg float %1
  %.fca.0.insert = insertvalue { <2 x float>, float } poison, <2 x float> %.sroa.04.4.vec.insert, 0
  %.fca.1.insert = insertvalue { <2 x float>, float } %.fca.0.insert, float %5, 1
  ret { <2 x float>, float } %.fca.1.insert
}